; Function Attrs: mustprogress nofree nounwind memory(readwrite, inaccessiblemem: read) uwtable
define noundef nonnull align 8 dereferenceable(8) ptr @_ZN3gmx29SelectionParserSymbolIteratorppEv(ptr noundef nonnull readonly returned align 8 dereferenceable(8) %0) local_unnamed_addr #14 align 2 {
  %2 = load ptr, ptr %0, align 8
  %3 = load ptr, ptr %2, align 8
  %4 = getelementptr inbounds i8, ptr %3, i64 64
  %5 = load ptr, ptr %4, align 8
  %6 = load ptr, ptr %5, align 8
  %7 = getelementptr inbounds i8, ptr %6, i64 32
  %8 = load i32, ptr %7, align 8
  br label %9

9:                                                ; preds = %17, %1
  %10 = phi ptr [ %15, %17 ], [ %3, %1 ]
  %11 = phi ptr [ %13, %17 ], [ %2, %1 ]
  %12 = tail call noundef ptr @_ZSt18_Rb_tree_incrementPKSt18_Rb_tree_node_base(ptr noundef nonnull %10) #24
  store ptr %12, ptr %11, align 8
  %13 = load ptr, ptr %0, align 8
  %14 = getelementptr inbounds i8, ptr %13, i64 8
  %15 = load ptr, ptr %13, align 8
  %16 = load ptr, ptr %14, align 8
  %.not1 = icmp eq ptr %15, %16
  br i1 %.not1, label %.critedge, label %17

17:                                               ; preds = %9
  %18 = getelementptr inbounds i8, ptr %15, i64 64
  %19 = load ptr, ptr %18, align 8
  %20 = load ptr, ptr %19, align 8
  %21 = getelementptr inbounds i8, ptr %20, i64 32
  %22 = load i32, ptr %21, align 8
  %.not = icmp eq i32 %22, %8
  br i1 %.not, label %.critedge, label %9, !llvm.loop !16

.critedge:                                        ; preds = %9, %17
  ret ptr %0
}